TN:
SF:/usr/include/gtest/internal/gtest-port.h
FN:977,_ZN7testing8internal8GTestLog9GetStreamEv
FNDA:0,_ZN7testing8internal8GTestLog9GetStreamEv
DA:977,0
end_of_record
SF:/usr/include/gtest/gtest.h
FN:324,_ZNK7testing15AssertionResultcvbEv
FNDA:6,_ZNK7testing15AssertionResultcvbEv
FN:333,_ZNK7testing15AssertionResult7messageEv
FNDA:0,_ZNK7testing15AssertionResult7messageEv
FN:337,_ZNK7testing15AssertionResult15failure_messageEv
FNDA:0,_ZNK7testing15AssertionResult15failure_messageEv
FN:427,_ZN7testing4Test14SetUpTestSuiteEv
FNDA:0,_ZN7testing4Test14SetUpTestSuiteEv
FN:435,_ZN7testing4Test17TearDownTestSuiteEv
FNDA:0,_ZN7testing4Test17TearDownTestSuiteEv
FN:440,_ZN7testing4Test16TearDownTestCaseEv
FNDA:0,_ZN7testing4Test16TearDownTestCaseEv
FN:441,_ZN7testing4Test13SetUpTestCaseEv
FNDA:0,_ZN7testing4Test13SetUpTestCaseEv
FN:522,_ZN7testing4Test5SetupEv
FNDA:0,_ZN7testing4Test5SetupEv
FN:1522,_ZN7testing8internal18CmpHelperEQFailureIPKcNSt7__cxx1112basic_stringIcSt11char_traitsIcESaIcEEEEENS_15AssertionResultES3_S3_RKT_RKT0_
FNDA:0,_ZN7testing8internal18CmpHelperEQFailureIPKcNSt7__cxx1112basic_stringIcSt11char_traitsIcESaIcEEEEENS_15AssertionResultES3_S3_RKT_RKT0_
FN:1522,_ZN7testing8internal18CmpHelperEQFailureIbbEENS_15AssertionResultEPKcS4_RKT_RKT0_
FNDA:0,_ZN7testing8internal18CmpHelperEQFailureIbbEENS_15AssertionResultEPKcS4_RKT_RKT0_
FN:1522,_ZN7testing8internal18CmpHelperEQFailureImiEENS_15AssertionResultEPKcS4_RKT_RKT0_
FNDA:0,_ZN7testing8internal18CmpHelperEQFailureImiEENS_15AssertionResultEPKcS4_RKT_RKT0_
FN:1522,_ZN7testing8internal18CmpHelperEQFailureIiiEENS_15AssertionResultEPKcS4_RKT_RKT0_
FNDA:0,_ZN7testing8internal18CmpHelperEQFailureIiiEENS_15AssertionResultEPKcS4_RKT_RKT0_
FN:1541,_ZN7testing8internal11CmpHelperEQIbbEENS_15AssertionResultEPKcS4_RKT_RKT0_
FNDA:2,_ZN7testing8internal11CmpHelperEQIbbEENS_15AssertionResultEPKcS4_RKT_RKT0_
FN:1541,_ZN7testing8internal11CmpHelperEQImiEENS_15AssertionResultEPKcS4_RKT_RKT0_
FNDA:1,_ZN7testing8internal11CmpHelperEQImiEENS_15AssertionResultEPKcS4_RKT_RKT0_
FN:1541,_ZN7testing8internal11CmpHelperEQIPKcNSt7__cxx1112basic_stringIcSt11char_traitsIcESaIcEEEEENS_15AssertionResultES3_S3_RKT_RKT0_
FNDA:2,_ZN7testing8internal11CmpHelperEQIPKcNSt7__cxx1112basic_stringIcSt11char_traitsIcESaIcEEEEENS_15AssertionResultES3_S3_RKT_RKT0_
FN:1541,_ZN7testing8internal11CmpHelperEQIiiEENS_15AssertionResultEPKcS4_RKT_RKT0_
FNDA:1,_ZN7testing8internal11CmpHelperEQIiiEENS_15AssertionResultEPKcS4_RKT_RKT0_
FN:1561,_ZN7testing8internal8EqHelper7CompareIPKcNSt7__cxx1112basic_stringIcSt11char_traitsIcESaIcEEELPv0EEENS_15AssertionResultES4_S4_RKT_RKT0_
FNDA:2,_ZN7testing8internal8EqHelper7CompareIPKcNSt7__cxx1112basic_stringIcSt11char_traitsIcESaIcEEELPv0EEENS_15AssertionResultES4_S4_RKT_RKT0_
FN:1561,_ZN7testing8internal8EqHelper7CompareImiLPv0EEENS_15AssertionResultEPKcS6_RKT_RKT0_
FNDA:1,_ZN7testing8internal8EqHelper7CompareImiLPv0EEENS_15AssertionResultEPKcS6_RKT_RKT0_
FN:1561,_ZN7testing8internal8EqHelper7CompareIbbLPv0EEENS_15AssertionResultEPKcS6_RKT_RKT0_
FNDA:2,_ZN7testing8internal8EqHelper7CompareIbbLPv0EEENS_15AssertionResultEPKcS6_RKT_RKT0_
FN:1561,_ZN7testing8internal8EqHelper7CompareIiiLPv0EEENS_15AssertionResultEPKcS6_RKT_RKT0_
FNDA:1,_ZN7testing8internal8EqHelper7CompareIiiLPv0EEENS_15AssertionResultEPKcS6_RKT_RKT0_
FN:2489,_Z13RUN_ALL_TESTSv
FNDA:2,_Z13RUN_ALL_TESTSv
DA:324,6
DA:333,0
DA:334,0
DA:337,0
DA:427,0
DA:435,0
DA:440,0
DA:441,0
DA:522,0
DA:1522,0
DA:1529,0
DA:1522,0
DA:1529,0
DA:1522,0
DA:1529,0
DA:1522,0
DA:1529,0
DA:1541,1
DA:1545,1
DA:1546,1
DA:1549,0
DA:1541,2
DA:1545,2
DA:1546,2
DA:1549,0
DA:1541,1
DA:1545,1
DA:1546,1
DA:1549,0
DA:1541,2
DA:1545,2
DA:1546,2
DA:1549,0
DA:1561,1
DA:1564,1
DA:1561,2
DA:1564,2
DA:1561,1
DA:1564,1
DA:1561,2
DA:1564,2
DA:2489,2
DA:2490,2
end_of_record
SF:/usr/include/c++/11/bits/basic_string.tcc
FN:132,_ZNSt7__cxx1112basic_stringIcSt11char_traitsIcESaIcEE9_M_createERmm
FNDA:261,_ZNSt7__cxx1112basic_stringIcSt11char_traitsIcESaIcEE9_M_createERmm
FN:206,_ZNSt7__cxx1112basic_stringIcSt11char_traitsIcESaIcEE12_M_constructIPcEEvT_S7_St20forward_iterator_tag
FNDA:4,_ZNSt7__cxx1112basic_stringIcSt11char_traitsIcESaIcEE12_M_constructIPcEEvT_S7_St20forward_iterator_tag
FN:206,_ZNSt7__cxx1112basic_stringIcSt11char_traitsIcESaIcEE12_M_constructIPKcEEvT_S8_St20forward_iterator_tag
FNDA:6,_ZNSt7__cxx1112basic_stringIcSt11char_traitsIcESaIcEE12_M_constructIPKcEEvT_S8_St20forward_iterator_tag
FN:1437,_ZNKSt7__cxx1112basic_stringIcSt11char_traitsIcESaIcEE7compareEPKc
FNDA:10,_ZNKSt7__cxx1112basic_stringIcSt11char_traitsIcESaIcEE7compareEPKc
DA:132,261
DA:137,261
DA:138,0
DA:143,261
DA:145,94
DA:147,94
DA:148,0
DA:153,261
DA:206,4
DA:211,4
DA:212,0
DA:215,4
DA:217,4
DA:219,4
DA:220,4
DA:225,4
DA:232,4
DA:233,4
DA:206,6
DA:211,6
DA:212,0
DA:215,6
DA:217,6
DA:219,5
DA:220,5
DA:225,6
DA:232,6
DA:233,6
DA:1437,10
DA:1441,10
DA:1442,10
DA:1443,10
DA:1444,10
DA:1445,10
DA:1446,10
DA:1447,10
end_of_record
SF:/usr/include/c++/11/bits/char_traits.h
FN:106,_ZN9__gnu_cxx11char_traitsIcE2eqERKcS3_
FNDA:0,_ZN9__gnu_cxx11char_traitsIcE2eqERKcS3_
FN:167,_ZN9__gnu_cxx11char_traitsIcE6lengthEPKc
FNDA:0,_ZN9__gnu_cxx11char_traitsIcE6lengthEPKc
FN:240,_ZN9__gnu_cxx11char_traitsIcE4copyEPcPKcm
FNDA:0,_ZN9__gnu_cxx11char_traitsIcE4copyEPcPKcm
FN:356,_ZNSt11char_traitsIcE6assignERcRKc
FNDA:10,_ZNSt11char_traitsIcE6assignERcRKc
FN:364,_ZNSt11char_traitsIcE2ltERKcS2_
FNDA:0,_ZNSt11char_traitsIcE2ltERKcS2_
FN:372,_ZNSt11char_traitsIcE7compareEPKcS2_m
FNDA:10,_ZNSt11char_traitsIcE7compareEPKcS2_m
FN:393,_ZNSt11char_traitsIcE6lengthEPKc
FNDA:16,_ZNSt11char_traitsIcE6lengthEPKc
FN:429,_ZNSt11char_traitsIcE4copyEPcPKcm
FNDA:10,_ZNSt11char_traitsIcE4copyEPcPKcm
DA:106,0
DA:107,0
DA:167,0
DA:170,0
DA:171,0
DA:172,0
DA:173,0
DA:240,0
DA:244,0
DA:245,0
DA:290,16
DA:356,10
DA:357,10
DA:364,0
DA:367,0
DA:368,0
DA:372,10
DA:374,10
DA:375,8
DA:377,2
DA:379,2
DA:381,0
DA:382,0
DA:383,0
DA:384,0
DA:385,0
DA:386,0
DA:389,2
DA:393,16
DA:396,16
DA:397,0
DA:399,16
DA:429,10
DA:431,10
DA:432,0
DA:434,10
DA:435,0
DA:437,10
end_of_record
SF:/usr/include/x86_64-linux-gnu/c++/11/bits/gthr-default.h
FN:300,_ZL18__gthread_active_pv
FNDA:84,_ZL18__gthread_active_pv
FN:746,_ZL20__gthread_mutex_lockP15pthread_mutex_t
FNDA:42,_ZL20__gthread_mutex_lockP15pthread_mutex_t
FN:776,_ZL22__gthread_mutex_unlockP15pthread_mutex_t
FNDA:42,_ZL22__gthread_mutex_unlockP15pthread_mutex_t
DA:300,84
DA:302,84
DA:746,42
DA:748,42
DA:749,42
DA:751,0
DA:776,42
DA:778,42
DA:779,42
DA:781,0
end_of_record
SF:/usr/include/c++/11/mutex
FN:654,_ZNSt11scoped_lockIJSt5mutexEEC2ERS0_
FNDA:42,_ZNSt11scoped_lockIJSt5mutexEEC2ERS0_
FN:661,_ZNSt11scoped_lockIJSt5mutexEED2Ev
FNDA:42,_ZNSt11scoped_lockIJSt5mutexEED2Ev
DA:654,42
DA:655,42
DA:661,42
DA:662,42
end_of_record
SF:/usr/include/c++/11/bits/move.h
FN:49,_ZSt11__addressofIKcEPT_RS1_
FNDA:30,_ZSt11__addressofIKcEPT_RS1_
FN:49,_ZSt11__addressofIcEPT_RS0_
FNDA:10,_ZSt11__addressofIcEPT_RS0_
FN:77,_ZSt7forwardIRKmEOT_RNSt16remove_referenceIS2_E4typeE
FNDA:4,_ZSt7forwardIRKmEOT_RNSt16remove_referenceIS2_E4typeE
FN:104,_ZSt4moveIRPN5dslib5stack5StackIiEEEONSt16remove_referenceIT_E4typeEOS7_
FNDA:4,_ZSt4moveIRPN5dslib5stack5StackIiEEEONSt16remove_referenceIT_E4typeEOS7_
FN:104,_ZSt4moveIRPNSt7__cxx1112basic_stringIcSt11char_traitsIcESaIcEEEEONSt16remove_referenceIT_E4typeEOS9_
FNDA:0,_ZSt4moveIRPNSt7__cxx1112basic_stringIcSt11char_traitsIcESaIcEEEEONSt16remove_referenceIT_E4typeEOS9_
FN:104,_ZSt4moveIRPNSt7__cxx1118basic_stringstreamIcSt11char_traitsIcESaIcEEEEONSt16remove_referenceIT_E4typeEOS9_
FNDA:0,_ZSt4moveIRPNSt7__cxx1118basic_stringstreamIcSt11char_traitsIcESaIcEEEEONSt16remove_referenceIT_E4typeEOS9_
FN:104,_ZSt4moveIRSaIcEEONSt16remove_referenceIT_E4typeEOS3_
FNDA:4,_ZSt4moveIRSaIcEEONSt16remove_referenceIT_E4typeEOS3_
FN:145,_ZSt9addressofIKcEPT_RS1_
FNDA:30,_ZSt9addressofIKcEPT_RS1_
FN:145,_ZSt9addressofIcEPT_RS0_
FNDA:10,_ZSt9addressofIcEPT_RS0_
DA:49,30
DA:50,30
DA:49,10
DA:50,10
DA:77,4
DA:78,4
DA:104,4
DA:105,4
DA:104,0
DA:105,0
DA:104,0
DA:105,0
DA:104,4
DA:105,4
DA:145,30
DA:146,30
DA:145,10
DA:146,10
end_of_record
SF:/home/pdi-5391/Documentos/data-structures/queue_of_stacks/inc/queue.hpp
FN:38,_ZN5dslib5queue5QueueIiEC2Em
FNDA:2,_ZN5dslib5queue5QueueIiEC2Em
FN:43,_ZN5dslib5queue5QueueIiED2Ev
FNDA:2,_ZN5dslib5queue5QueueIiED2Ev
FN:45,_ZN5dslib5queue5QueueIiE5emptyEv
FNDA:2,_ZN5dslib5queue5QueueIiE5emptyEv
FN:51,_ZN5dslib5queue5QueueIiE4sizeEv
FNDA:1,_ZN5dslib5queue5QueueIiE4sizeEv
FN:57,_ZN5dslib5queue5QueueIiE7enqueueEi
FNDA:4,_ZN5dslib5queue5QueueIiE7enqueueEi
FN:87,_ZN5dslib5queue5QueueIiE7dequeueEv
FNDA:2,_ZN5dslib5queue5QueueIiE7dequeueEv
DA:38,2
DA:39,2
DA:40,2
DA:41,2
DA:43,2
DA:45,2
DA:47,2
DA:48,4
DA:49,2
DA:51,1
DA:53,1
DA:54,2
DA:55,1
DA:57,4
DA:59,4
DA:60,4
DA:62,1
DA:66,3
DA:67,4
DA:69,1
DA:70,1
DA:72,3
DA:73,3
DA:74,7
DA:76,4
DA:77,4
DA:79,3
DA:81,0
DA:83,0
DA:85,4
DA:87,2
DA:89,2
DA:90,2
DA:92,1
DA:96,1
DA:97,1
DA:98,1
DA:100,0
DA:102,0
DA:104,2
end_of_record
SF:/usr/include/c++/11/iostream
end_of_record
SF:/usr/include/c++/11/bits/allocator.h
DA:182,261
DA:183,0
DA:185,261
DA:193,11
DA:195,0
DA:196,0
DA:199,11
end_of_record
SF:/usr/include/gtest/gtest-message.h
end_of_record
SF:/usr/include/c++/11/bits/std_mutex.h
FN:65,_ZNSt12__mutex_baseC2Ev
FNDA:6,_ZNSt12__mutex_baseC2Ev
FN:91,_ZNSt5mutexC2Ev
FNDA:6,_ZNSt5mutexC2Ev
FN:98,_ZNSt5mutex4lockEv
FNDA:42,_ZNSt5mutex4lockEv
FN:115,_ZNSt5mutex6unlockEv
FNDA:42,_ZNSt5mutex6unlockEv
DA:65,6
DA:91,6
DA:98,42
DA:100,42
DA:103,42
DA:104,0
DA:105,42
DA:115,42
DA:118,42
DA:119,42
end_of_record
SF:/usr/include/c++/11/bits/alloc_traits.h
FN:463,_ZNSt16allocator_traitsISaIcEE8allocateERS0_m
FNDA:261,_ZNSt16allocator_traitsISaIcEE8allocateERS0_m
FN:495,_ZNSt16allocator_traitsISaIcEE10deallocateERS0_Pcm
FNDA:11,_ZNSt16allocator_traitsISaIcEE10deallocateERS0_Pcm
FN:547,_ZNSt16allocator_traitsISaIcEE8max_sizeERKS0_
FNDA:355,_ZNSt16allocator_traitsISaIcEE8max_sizeERKS0_
FN:562,_ZNSt16allocator_traitsISaIcEE37select_on_container_copy_constructionERKS0_
FNDA:4,_ZNSt16allocator_traitsISaIcEE37select_on_container_copy_constructionERKS0_
DA:463,261
DA:464,261
DA:495,11
DA:496,11
DA:547,355
DA:552,355
DA:562,4
DA:563,4
end_of_record
SF:/usr/include/c++/11/ext/new_allocator.h
FN:79,_ZN9__gnu_cxx13new_allocatorIcEC2Ev
FNDA:0,_ZN9__gnu_cxx13new_allocatorIcEC2Ev
FN:82,_ZN9__gnu_cxx13new_allocatorIcEC2ERKS1_
FNDA:0,_ZN9__gnu_cxx13new_allocatorIcEC2ERKS1_
FN:103,_ZN9__gnu_cxx13new_allocatorIcE8allocateEmPKv
FNDA:261,_ZN9__gnu_cxx13new_allocatorIcE8allocateEmPKv
FN:132,_ZN9__gnu_cxx13new_allocatorIcE10deallocateEPcm
FNDA:11,_ZN9__gnu_cxx13new_allocatorIcE10deallocateEPcm
FN:197,_ZNK9__gnu_cxx13new_allocatorIcE11_M_max_sizeEv
FNDA:261,_ZNK9__gnu_cxx13new_allocatorIcE11_M_max_sizeEv
DA:79,0
DA:82,0
DA:103,261
DA:111,261
DA:117,0
DA:127,261
DA:132,11
DA:145,11
DA:197,261
DA:200,261
end_of_record
SF:/home/pdi-5391/Documentos/data-structures/queue_of_stacks/inc/stack.hpp
FN:33,_ZN5dslib5stack5StackIiEC2Em
FNDA:4,_ZN5dslib5stack5StackIiEC2Em
FN:37,_ZN5dslib5stack5StackIiED2Ev
FNDA:4,_ZN5dslib5stack5StackIiED2Ev
FN:39,_ZN5dslib5stack5StackIiE5emptyEv
FNDA:8,_ZN5dslib5stack5StackIiE5emptyEv
FN:49,_ZN5dslib5stack5StackIiE4sizeEv
FNDA:11,_ZN5dslib5stack5StackIiE4sizeEv
FN:55,_ZN5dslib5stack5StackIiE4pushEi
FNDA:8,_ZN5dslib5stack5StackIiE4pushEi
FN:65,_ZN5dslib5stack5StackIiE3popEv
FNDA:6,_ZN5dslib5stack5StackIiE3popEv
DA:33,4
DA:34,4
DA:35,4
DA:37,4
DA:39,8
DA:41,8
DA:42,8
DA:44,1
DA:46,7
DA:47,8
DA:49,11
DA:51,11
DA:52,11
DA:53,11
DA:55,8
DA:57,8
DA:58,8
DA:60,0
DA:62,8
DA:63,8
DA:65,6
DA:67,6
DA:69,0
DA:71,6
DA:72,12
DA:73,6
end_of_record
SF:/usr/include/c++/11/ext/alloc_traits.h
FN:97,_ZN9__gnu_cxx14__alloc_traitsISaIcEcE17_S_select_on_copyERKS1_
FNDA:4,_ZN9__gnu_cxx14__alloc_traitsISaIcEcE17_S_select_on_copyERKS1_
DA:97,4
DA:98,4
end_of_record
SF:/usr/include/c++/11/tuple
FN:80,_ZNSt10_Head_baseILm1ESt14default_deleteIA_iELb1EEC2Ev
FNDA:4,_ZNSt10_Head_baseILm1ESt14default_deleteIA_iELb1EEC2Ev
FN:80,_ZNSt10_Head_baseILm1ESt14default_deleteIN5dslib5stack5StackIiEEELb1EEC2Ev
FNDA:4,_ZNSt10_Head_baseILm1ESt14default_deleteIN5dslib5stack5StackIiEEELb1EEC2Ev
FN:124,_ZNSt10_Head_baseILm1ESt14default_deleteIA_iELb1EE7_M_headERS3_
FNDA:4,_ZNSt10_Head_baseILm1ESt14default_deleteIA_iELb1EE7_M_headERS3_
FN:124,_ZNSt10_Head_baseILm1ESt14default_deleteINSt7__cxx1118basic_stringstreamIcSt11char_traitsIcESaIcEEEELb1EE7_M_headERS8_
FNDA:0,_ZNSt10_Head_baseILm1ESt14default_deleteINSt7__cxx1118basic_stringstreamIcSt11char_traitsIcESaIcEEEELb1EE7_M_headERS8_
FN:124,_ZNSt10_Head_baseILm1ESt14default_deleteINSt7__cxx1112basic_stringIcSt11char_traitsIcESaIcEEEELb1EE7_M_headERS8_
FNDA:0,_ZNSt10_Head_baseILm1ESt14default_deleteINSt7__cxx1112basic_stringIcSt11char_traitsIcESaIcEEEELb1EE7_M_headERS8_
FN:124,_ZNSt10_Head_baseILm1ESt14default_deleteIN5dslib5stack5StackIiEEELb1EE7_M_headERS6_
FNDA:4,_ZNSt10_Head_baseILm1ESt14default_deleteIN5dslib5stack5StackIiEEELb1EE7_M_headERS6_
FN:189,_ZNSt10_Head_baseILm0EPiLb0EEC2Ev
FNDA:4,_ZNSt10_Head_baseILm0EPiLb0EEC2Ev
FN:189,_ZNSt10_Head_baseILm0EPN5dslib5stack5StackIiEELb0EEC2Ev
FNDA:4,_ZNSt10_Head_baseILm0EPN5dslib5stack5StackIiEELb0EEC2Ev
FN:233,_ZNSt10_Head_baseILm0EPiLb0EE7_M_headERS1_
FNDA:8,_ZNSt10_Head_baseILm0EPiLb0EE7_M_headERS1_
FN:233,_ZNSt10_Head_baseILm0EPNSt7__cxx1118basic_stringstreamIcSt11char_traitsIcESaIcEEELb0EE7_M_headERS7_
FNDA:0,_ZNSt10_Head_baseILm0EPNSt7__cxx1118basic_stringstreamIcSt11char_traitsIcESaIcEEELb0EE7_M_headERS7_
FN:233,_ZNSt10_Head_baseILm0EPNSt7__cxx1112basic_stringIcSt11char_traitsIcESaIcEEELb0EE7_M_headERS7_
FNDA:6,_ZNSt10_Head_baseILm0EPNSt7__cxx1112basic_stringIcSt11char_traitsIcESaIcEEELb0EE7_M_headERS7_
FN:233,_ZNSt10_Head_baseILm0EPN5dslib5stack5StackIiEELb0EE7_M_headERS5_
FNDA:8,_ZNSt10_Head_baseILm0EPN5dslib5stack5StackIiEELb0EE7_M_headERS5_
FN:236,_ZNSt10_Head_baseILm0EPNSt7__cxx1112basic_stringIcSt11char_traitsIcESaIcEEELb0EE7_M_headERKS7_
FNDA:0,_ZNSt10_Head_baseILm0EPNSt7__cxx1112basic_stringIcSt11char_traitsIcESaIcEEELb0EE7_M_headERKS7_
FN:236,_ZNSt10_Head_baseILm0EPN5dslib5stack5StackIiEELb0EE7_M_headERKS5_
FNDA:27,_ZNSt10_Head_baseILm0EPN5dslib5stack5StackIiEELb0EE7_M_headERKS5_
FN:236,_ZNSt10_Head_baseILm0EPiLb0EE7_M_headERKS1_
FNDA:14,_ZNSt10_Head_baseILm0EPiLb0EE7_M_headERKS1_
FN:268,_ZNSt11_Tuple_implILm0EJPiSt14default_deleteIA_iEEE7_M_headERS4_
FNDA:8,_ZNSt11_Tuple_implILm0EJPiSt14default_deleteIA_iEEE7_M_headERS4_
FN:268,_ZNSt11_Tuple_implILm0EJPNSt7__cxx1118basic_stringstreamIcSt11char_traitsIcESaIcEEESt14default_deleteIS5_EEE7_M_headERS9_
FNDA:0,_ZNSt11_Tuple_implILm0EJPNSt7__cxx1118basic_stringstreamIcSt11char_traitsIcESaIcEEESt14default_deleteIS5_EEE7_M_headERS9_
FN:268,_ZNSt11_Tuple_implILm0EJPNSt7__cxx1112basic_stringIcSt11char_traitsIcESaIcEEESt14default_deleteIS5_EEE7_M_headERS9_
FNDA:6,_ZNSt11_Tuple_implILm0EJPNSt7__cxx1112basic_stringIcSt11char_traitsIcESaIcEEESt14default_deleteIS5_EEE7_M_headERS9_
FN:268,_ZNSt11_Tuple_implILm0EJPN5dslib5stack5StackIiEESt14default_deleteIS3_EEE7_M_headERS7_
FNDA:8,_ZNSt11_Tuple_implILm0EJPN5dslib5stack5StackIiEESt14default_deleteIS3_EEE7_M_headERS7_
FN:271,_ZNSt11_Tuple_implILm0EJPN5dslib5stack5StackIiEESt14default_deleteIS3_EEE7_M_headERKS7_
FNDA:27,_ZNSt11_Tuple_implILm0EJPN5dslib5stack5StackIiEESt14default_deleteIS3_EEE7_M_headERKS7_
FN:271,_ZNSt11_Tuple_implILm0EJPiSt14default_deleteIA_iEEE7_M_headERKS4_
FNDA:14,_ZNSt11_Tuple_implILm0EJPiSt14default_deleteIA_iEEE7_M_headERKS4_
FN:271,_ZNSt11_Tuple_implILm0EJPNSt7__cxx1112basic_stringIcSt11char_traitsIcESaIcEEESt14default_deleteIS5_EEE7_M_headERKS9_
FNDA:0,_ZNSt11_Tuple_implILm0EJPNSt7__cxx1112basic_stringIcSt11char_traitsIcESaIcEEESt14default_deleteIS5_EEE7_M_headERKS9_
FN:279,_ZNSt11_Tuple_implILm0EJPiSt14default_deleteIA_iEEEC2Ev
FNDA:4,_ZNSt11_Tuple_implILm0EJPiSt14default_deleteIA_iEEEC2Ev
FN:279,_ZNSt11_Tuple_implILm0EJPN5dslib5stack5StackIiEESt14default_deleteIS3_EEEC2Ev
FNDA:4,_ZNSt11_Tuple_implILm0EJPN5dslib5stack5StackIiEESt14default_deleteIS3_EEEC2Ev
FN:424,_ZNSt11_Tuple_implILm1EJSt14default_deleteIN5dslib5stack5StackIiEEEEE7_M_headERS6_
FNDA:4,_ZNSt11_Tuple_implILm1EJSt14default_deleteIN5dslib5stack5StackIiEEEEE7_M_headERS6_
FN:424,_ZNSt11_Tuple_implILm1EJSt14default_deleteINSt7__cxx1118basic_stringstreamIcSt11char_traitsIcESaIcEEEEEE7_M_headERS8_
FNDA:0,_ZNSt11_Tuple_implILm1EJSt14default_deleteINSt7__cxx1118basic_stringstreamIcSt11char_traitsIcESaIcEEEEEE7_M_headERS8_
FN:424,_ZNSt11_Tuple_implILm1EJSt14default_deleteINSt7__cxx1112basic_stringIcSt11char_traitsIcESaIcEEEEEE7_M_headERS8_
FNDA:0,_ZNSt11_Tuple_implILm1EJSt14default_deleteINSt7__cxx1112basic_stringIcSt11char_traitsIcESaIcEEEEEE7_M_headERS8_
FN:424,_ZNSt11_Tuple_implILm1EJSt14default_deleteIA_iEEE7_M_headERS3_
FNDA:4,_ZNSt11_Tuple_implILm1EJSt14default_deleteIA_iEEE7_M_headERS3_
FN:430,_ZNSt11_Tuple_implILm1EJSt14default_deleteIN5dslib5stack5StackIiEEEEEC2Ev
FNDA:4,_ZNSt11_Tuple_implILm1EJSt14default_deleteIN5dslib5stack5StackIiEEEEEC2Ev
FN:430,_ZNSt11_Tuple_implILm1EJSt14default_deleteIA_iEEEC2Ev
FNDA:4,_ZNSt11_Tuple_implILm1EJSt14default_deleteIA_iEEEC2Ev
FN:1053,_ZNSt5tupleIJPiSt14default_deleteIA_iEEEC2ILb1ELb1EEEv
FNDA:4,_ZNSt5tupleIJPiSt14default_deleteIA_iEEEC2ILb1ELb1EEEv
FN:1053,_ZNSt5tupleIJPN5dslib5stack5StackIiEESt14default_deleteIS3_EEEC2ILb1ELb1EEEv
FNDA:4,_ZNSt5tupleIJPN5dslib5stack5StackIiEESt14default_deleteIS3_EEEC2ILb1ELb1EEEv
FN:1381,_ZSt12__get_helperILm1ESt14default_deleteINSt7__cxx1112basic_stringIcSt11char_traitsIcESaIcEEEEJEERT0_RSt11_Tuple_implIXT_EJS8_DpT1_EE
FNDA:0,_ZSt12__get_helperILm1ESt14default_deleteINSt7__cxx1112basic_stringIcSt11char_traitsIcESaIcEEEEJEERT0_RSt11_Tuple_implIXT_EJS8_DpT1_EE
FN:1381,_ZSt12__get_helperILm1ESt14default_deleteINSt7__cxx1118basic_stringstreamIcSt11char_traitsIcESaIcEEEEJEERT0_RSt11_Tuple_implIXT_EJS8_DpT1_EE
FNDA:0,_ZSt12__get_helperILm1ESt14default_deleteINSt7__cxx1118basic_stringstreamIcSt11char_traitsIcESaIcEEEEJEERT0_RSt11_Tuple_implIXT_EJS8_DpT1_EE
FN:1381,_ZSt12__get_helperILm1ESt14default_deleteIN5dslib5stack5StackIiEEEJEERT0_RSt11_Tuple_implIXT_EJS6_DpT1_EE
FNDA:4,_ZSt12__get_helperILm1ESt14default_deleteIN5dslib5stack5StackIiEEEJEERT0_RSt11_Tuple_implIXT_EJS6_DpT1_EE
FN:1381,_ZSt12__get_helperILm0EPNSt7__cxx1112basic_stringIcSt11char_traitsIcESaIcEEEJSt14default_deleteIS5_EEERT0_RSt11_Tuple_implIXT_EJS9_DpT1_EE
FNDA:6,_ZSt12__get_helperILm0EPNSt7__cxx1112basic_stringIcSt11char_traitsIcESaIcEEEJSt14default_deleteIS5_EEERT0_RSt11_Tuple_implIXT_EJS9_DpT1_EE
FN:1381,_ZSt12__get_helperILm0EPNSt7__cxx1118basic_stringstreamIcSt11char_traitsIcESaIcEEEJSt14default_deleteIS5_EEERT0_RSt11_Tuple_implIXT_EJS9_DpT1_EE
FNDA:0,_ZSt12__get_helperILm0EPNSt7__cxx1118basic_stringstreamIcSt11char_traitsIcESaIcEEEJSt14default_deleteIS5_EEERT0_RSt11_Tuple_implIXT_EJS9_DpT1_EE
FN:1381,_ZSt12__get_helperILm0EPN5dslib5stack5StackIiEEJSt14default_deleteIS3_EEERT0_RSt11_Tuple_implIXT_EJS7_DpT1_EE
FNDA:8,_ZSt12__get_helperILm0EPN5dslib5stack5StackIiEEJSt14default_deleteIS3_EEERT0_RSt11_Tuple_implIXT_EJS7_DpT1_EE
FN:1381,_ZSt12__get_helperILm0EPiJSt14default_deleteIA_iEEERT0_RSt11_Tuple_implIXT_EJS4_DpT1_EE
FNDA:8,_ZSt12__get_helperILm0EPiJSt14default_deleteIA_iEEERT0_RSt11_Tuple_implIXT_EJS4_DpT1_EE
FN:1381,_ZSt12__get_helperILm1ESt14default_deleteIA_iEJEERT0_RSt11_Tuple_implIXT_EJS3_DpT1_EE
FNDA:4,_ZSt12__get_helperILm1ESt14default_deleteIA_iEJEERT0_RSt11_Tuple_implIXT_EJS3_DpT1_EE
FN:1386,_ZSt12__get_helperILm0EPN5dslib5stack5StackIiEEJSt14default_deleteIS3_EEERKT0_RKSt11_Tuple_implIXT_EJS7_DpT1_EE
FNDA:27,_ZSt12__get_helperILm0EPN5dslib5stack5StackIiEEJSt14default_deleteIS3_EEERKT0_RKSt11_Tuple_implIXT_EJS7_DpT1_EE
FN:1386,_ZSt12__get_helperILm0EPiJSt14default_deleteIA_iEEERKT0_RKSt11_Tuple_implIXT_EJS4_DpT1_EE
FNDA:14,_ZSt12__get_helperILm0EPiJSt14default_deleteIA_iEEERKT0_RKSt11_Tuple_implIXT_EJS4_DpT1_EE
FN:1386,_ZSt12__get_helperILm0EPNSt7__cxx1112basic_stringIcSt11char_traitsIcESaIcEEEJSt14default_deleteIS5_EEERKT0_RKSt11_Tuple_implIXT_EJS9_DpT1_EE
FNDA:0,_ZSt12__get_helperILm0EPNSt7__cxx1112basic_stringIcSt11char_traitsIcESaIcEEEJSt14default_deleteIS5_EEERKT0_RKSt11_Tuple_implIXT_EJS9_DpT1_EE
FN:1397,_ZSt3getILm1EJPN5dslib5stack5StackIiEESt14default_deleteIS3_EEERNSt13tuple_elementIXT_ESt5tupleIJDpT0_EEE4typeERSB_
FNDA:4,_ZSt3getILm1EJPN5dslib5stack5StackIiEESt14default_deleteIS3_EEERNSt13tuple_elementIXT_ESt5tupleIJDpT0_EEE4typeERSB_
FN:1397,_ZSt3getILm0EJPiSt14default_deleteIA_iEEERNSt13tuple_elementIXT_ESt5tupleIJDpT0_EEE4typeERS8_
FNDA:8,_ZSt3getILm0EJPiSt14default_deleteIA_iEEERNSt13tuple_elementIXT_ESt5tupleIJDpT0_EEE4typeERS8_
FN:1397,_ZSt3getILm1EJPiSt14default_deleteIA_iEEERNSt13tuple_elementIXT_ESt5tupleIJDpT0_EEE4typeERS8_
FNDA:4,_ZSt3getILm1EJPiSt14default_deleteIA_iEEERNSt13tuple_elementIXT_ESt5tupleIJDpT0_EEE4typeERS8_
FN:1397,_ZSt3getILm0EJPN5dslib5stack5StackIiEESt14default_deleteIS3_EEERNSt13tuple_elementIXT_ESt5tupleIJDpT0_EEE4typeERSB_
FNDA:8,_ZSt3getILm0EJPN5dslib5stack5StackIiEESt14default_deleteIS3_EEERNSt13tuple_elementIXT_ESt5tupleIJDpT0_EEE4typeERSB_
FN:1397,_ZSt3getILm1EJPNSt7__cxx1112basic_stringIcSt11char_traitsIcESaIcEEESt14default_deleteIS5_EEERNSt13tuple_elementIXT_ESt5tupleIJDpT0_EEE4typeERSD_
FNDA:0,_ZSt3getILm1EJPNSt7__cxx1112basic_stringIcSt11char_traitsIcESaIcEEESt14default_deleteIS5_EEERNSt13tuple_elementIXT_ESt5tupleIJDpT0_EEE4typeERSD_
FN:1397,_ZSt3getILm1EJPNSt7__cxx1118basic_stringstreamIcSt11char_traitsIcESaIcEEESt14default_deleteIS5_EEERNSt13tuple_elementIXT_ESt5tupleIJDpT0_EEE4typeERSD_
FNDA:0,_ZSt3getILm1EJPNSt7__cxx1118basic_stringstreamIcSt11char_traitsIcESaIcEEESt14default_deleteIS5_EEERNSt13tuple_elementIXT_ESt5tupleIJDpT0_EEE4typeERSD_
FN:1397,_ZSt3getILm0EJPNSt7__cxx1112basic_stringIcSt11char_traitsIcESaIcEEESt14default_deleteIS5_EEERNSt13tuple_elementIXT_ESt5tupleIJDpT0_EEE4typeERSD_
FNDA:6,_ZSt3getILm0EJPNSt7__cxx1112basic_stringIcSt11char_traitsIcESaIcEEESt14default_deleteIS5_EEERNSt13tuple_elementIXT_ESt5tupleIJDpT0_EEE4typeERSD_
FN:1397,_ZSt3getILm0EJPNSt7__cxx1118basic_stringstreamIcSt11char_traitsIcESaIcEEESt14default_deleteIS5_EEERNSt13tuple_elementIXT_ESt5tupleIJDpT0_EEE4typeERSD_
FNDA:0,_ZSt3getILm0EJPNSt7__cxx1118basic_stringstreamIcSt11char_traitsIcESaIcEEESt14default_deleteIS5_EEERNSt13tuple_elementIXT_ESt5tupleIJDpT0_EEE4typeERSD_
FN:1403,_ZSt3getILm0EJPN5dslib5stack5StackIiEESt14default_deleteIS3_EEERKNSt13tuple_elementIXT_ESt5tupleIJDpT0_EEE4typeERKSB_
FNDA:27,_ZSt3getILm0EJPN5dslib5stack5StackIiEESt14default_deleteIS3_EEERKNSt13tuple_elementIXT_ESt5tupleIJDpT0_EEE4typeERKSB_
FN:1403,_ZSt3getILm0EJPiSt14default_deleteIA_iEEERKNSt13tuple_elementIXT_ESt5tupleIJDpT0_EEE4typeERKS8_
FNDA:14,_ZSt3getILm0EJPiSt14default_deleteIA_iEEERKNSt13tuple_elementIXT_ESt5tupleIJDpT0_EEE4typeERKS8_
FN:1403,_ZSt3getILm0EJPNSt7__cxx1112basic_stringIcSt11char_traitsIcESaIcEEESt14default_deleteIS5_EEERKNSt13tuple_elementIXT_ESt5tupleIJDpT0_EEE4typeERKSD_
FNDA:0,_ZSt3getILm0EJPNSt7__cxx1112basic_stringIcSt11char_traitsIcESaIcEEESt14default_deleteIS5_EEERKNSt13tuple_elementIXT_ESt5tupleIJDpT0_EEE4typeERKSD_
DA:80,4
DA:81,4
DA:80,4
DA:81,4
DA:124,4
DA:124,4
DA:124,0
DA:124,0
DA:189,4
DA:190,4
DA:189,4
DA:190,4
DA:233,8
DA:233,8
DA:233,6
DA:233,0
DA:236,14
DA:236,27
DA:236,0
DA:268,8
DA:268,8
DA:268,6
DA:268,0
DA:271,14
DA:271,27
DA:271,0
DA:279,4
DA:280,4
DA:279,4
DA:280,4
DA:424,4
DA:424,4
DA:424,0
DA:424,0
DA:430,4
DA:431,4
DA:430,4
DA:431,4
DA:1053,4
DA:1055,4
DA:1053,4
DA:1055,4
DA:1381,4
DA:1382,4
DA:1381,8
DA:1382,8
DA:1381,4
DA:1382,4
DA:1381,8
DA:1382,8
DA:1381,0
DA:1382,0
DA:1381,0
DA:1382,0
DA:1381,6
DA:1382,6
DA:1381,0
DA:1382,0
DA:1386,14
DA:1387,14
DA:1386,27
DA:1387,27
DA:1386,0
DA:1387,0
DA:1397,4
DA:1398,4
DA:1397,8
DA:1398,8
DA:1397,4
DA:1398,4
DA:1397,8
DA:1398,8
DA:1397,0
DA:1398,0
DA:1397,0
DA:1398,0
DA:1397,6
DA:1398,6
DA:1397,0
DA:1398,0
DA:1403,14
DA:1404,14
DA:1403,27
DA:1404,27
DA:1403,0
DA:1404,0
end_of_record
SF:/usr/include/c++/11/bits/cpp_type_traits.h
FN:560,_ZSt12__miter_baseIPKcET_S2_
FNDA:0,_ZSt12__miter_baseIPKcET_S2_
DA:560,0
DA:561,0
end_of_record
SF:/usr/include/gtest/gtest-printers.h
FN:212,_ZN7testing8internal52internal_stream_operator_without_lexical_name_lookup13StreamPrinter10PrintValueImvRSoEEvRKT_PSo
FNDA:0,_ZN7testing8internal52internal_stream_operator_without_lexical_name_lookup13StreamPrinter10PrintValueImvRSoEEvRKT_PSo
FN:212,_ZN7testing8internal52internal_stream_operator_without_lexical_name_lookup13StreamPrinter10PrintValueIivRSoEEvRKT_PSo
FNDA:0,_ZN7testing8internal52internal_stream_operator_without_lexical_name_lookup13StreamPrinter10PrintValueIivRSoEEvRKT_PSo
FN:306,_ZN7testing8internal17PrintWithFallbackIiEEvRKT_PSo
FNDA:0,_ZN7testing8internal17PrintWithFallbackIiEEvRKT_PSo
FN:306,_ZN7testing8internal17PrintWithFallbackImEEvRKT_PSo
FNDA:0,_ZN7testing8internal17PrintWithFallbackImEEvRKT_PSo
FN:333,_ZN7testing8internal19FormatForComparisonIbbE6FormatB5cxx11ERKb
FNDA:0,_ZN7testing8internal19FormatForComparisonIbbE6FormatB5cxx11ERKb
FN:333,_ZN7testing8internal19FormatForComparisonImiE6FormatB5cxx11ERKm
FNDA:0,_ZN7testing8internal19FormatForComparisonImiE6FormatB5cxx11ERKm
FN:333,_ZN7testing8internal19FormatForComparisonIimE6FormatB5cxx11ERKi
FNDA:0,_ZN7testing8internal19FormatForComparisonIimE6FormatB5cxx11ERKi
FN:333,_ZN7testing8internal19FormatForComparisonINSt7__cxx1112basic_stringIcSt11char_traitsIcESaIcEEEPKcE6FormatERKS7_
FNDA:0,_ZN7testing8internal19FormatForComparisonINSt7__cxx1112basic_stringIcSt11char_traitsIcESaIcEEEPKcE6FormatERKS7_
FN:333,_ZN7testing8internal19FormatForComparisonIiiE6FormatB5cxx11ERKi
FNDA:0,_ZN7testing8internal19FormatForComparisonIiiE6FormatB5cxx11ERKi
FN:387,_ZN7testing8internal19FormatForComparisonIPKcNSt7__cxx1112basic_stringIcSt11char_traitsIcESaIcEEEE6FormatES3_
FNDA:0,_ZN7testing8internal19FormatForComparisonIPKcNSt7__cxx1112basic_stringIcSt11char_traitsIcESaIcEEEE6FormatES3_
FN:413,_ZN7testing8internal33FormatForComparisonFailureMessageIbbEENSt7__cxx1112basic_stringIcSt11char_traitsIcESaIcEEERKT_RKT0_
FNDA:0,_ZN7testing8internal33FormatForComparisonFailureMessageIbbEENSt7__cxx1112basic_stringIcSt11char_traitsIcESaIcEEERKT_RKT0_
FN:413,_ZN7testing8internal33FormatForComparisonFailureMessageImiEENSt7__cxx1112basic_stringIcSt11char_traitsIcESaIcEEERKT_RKT0_
FNDA:0,_ZN7testing8internal33FormatForComparisonFailureMessageImiEENSt7__cxx1112basic_stringIcSt11char_traitsIcESaIcEEERKT_RKT0_
FN:413,_ZN7testing8internal33FormatForComparisonFailureMessageIimEENSt7__cxx1112basic_stringIcSt11char_traitsIcESaIcEEERKT_RKT0_
FNDA:0,_ZN7testing8internal33FormatForComparisonFailureMessageIimEENSt7__cxx1112basic_stringIcSt11char_traitsIcESaIcEEERKT_RKT0_
FN:413,_ZN7testing8internal33FormatForComparisonFailureMessageIPKcNSt7__cxx1112basic_stringIcSt11char_traitsIcESaIcEEEEES9_RKT_RKT0_
FNDA:0,_ZN7testing8internal33FormatForComparisonFailureMessageIPKcNSt7__cxx1112basic_stringIcSt11char_traitsIcESaIcEEEEES9_RKT_RKT0_
FN:413,_ZN7testing8internal33FormatForComparisonFailureMessageINSt7__cxx1112basic_stringIcSt11char_traitsIcESaIcEEEPKcEES7_RKT_RKT0_
FNDA:0,_ZN7testing8internal33FormatForComparisonFailureMessageINSt7__cxx1112basic_stringIcSt11char_traitsIcESaIcEEEPKcEES7_RKT_RKT0_
FN:413,_ZN7testing8internal33FormatForComparisonFailureMessageIiiEENSt7__cxx1112basic_stringIcSt11char_traitsIcESaIcEEERKT_RKT0_
FNDA:0,_ZN7testing8internal33FormatForComparisonFailureMessageIiiEENSt7__cxx1112basic_stringIcSt11char_traitsIcESaIcEEERKT_RKT0_
FN:440,_ZN7testing8internal7PrintToImEEvRKT_PSo
FNDA:0,_ZN7testing8internal7PrintToImEEvRKT_PSo
FN:440,_ZN7testing8internal7PrintToIiEEvRKT_PSo
FNDA:0,_ZN7testing8internal7PrintToIiEEvRKT_PSo
FN:459,_ZN7testing8internal7PrintToEbPSo
FNDA:0,_ZN7testing8internal7PrintToEbPSo
FN:549,_ZN7testing8internal7PrintToERKNSt7__cxx1112basic_stringIcSt11char_traitsIcESaIcEEEPSo
FNDA:0,_ZN7testing8internal7PrintToERKNSt7__cxx1112basic_stringIcSt11char_traitsIcESaIcEEEPSo
FN:682,_ZN7testing8internal16UniversalPrinterIbE5PrintERKbPSo
FNDA:0,_ZN7testing8internal16UniversalPrinterIbE5PrintERKbPSo
FN:682,_ZN7testing8internal16UniversalPrinterImE5PrintERKmPSo
FNDA:0,_ZN7testing8internal16UniversalPrinterImE5PrintERKmPSo
FN:682,_ZN7testing8internal16UniversalPrinterIiE5PrintERKiPSo
FNDA:0,_ZN7testing8internal16UniversalPrinterIiE5PrintERKiPSo
FN:682,_ZN7testing8internal16UniversalPrinterINSt7__cxx1112basic_stringIcSt11char_traitsIcESaIcEEEE5PrintERKS7_PSo
FNDA:0,_ZN7testing8internal16UniversalPrinterINSt7__cxx1112basic_stringIcSt11char_traitsIcESaIcEEEE5PrintERKS7_PSo
FN:864,_ZN7testing8internal21UniversalTersePrinterIbE5PrintERKbPSo
FNDA:0,_ZN7testing8internal21UniversalTersePrinterIbE5PrintERKbPSo
FN:864,_ZN7testing8internal21UniversalTersePrinterImE5PrintERKmPSo
FNDA:0,_ZN7testing8internal21UniversalTersePrinterImE5PrintERKmPSo
FN:864,_ZN7testing8internal21UniversalTersePrinterIiE5PrintERKiPSo
FNDA:0,_ZN7testing8internal21UniversalTersePrinterIiE5PrintERKiPSo
FN:864,_ZN7testing8internal21UniversalTersePrinterINSt7__cxx1112basic_stringIcSt11char_traitsIcESaIcEEEE5PrintERKS7_PSo
FNDA:0,_ZN7testing8internal21UniversalTersePrinterINSt7__cxx1112basic_stringIcSt11char_traitsIcESaIcEEEE5PrintERKS7_PSo
FN:885,_ZN7testing8internal21UniversalTersePrinterIPKcE5PrintES3_PSo
FNDA:0,_ZN7testing8internal21UniversalTersePrinterIPKcE5PrintES3_PSo
FN:976,_ZN7testing8internal14UniversalPrintIbEEvRKT_PSo
FNDA:0,_ZN7testing8internal14UniversalPrintIbEEvRKT_PSo
FN:976,_ZN7testing8internal14UniversalPrintINSt7__cxx1112basic_stringIcSt11char_traitsIcESaIcEEEEEvRKT_PSo
FNDA:0,_ZN7testing8internal14UniversalPrintINSt7__cxx1112basic_stringIcSt11char_traitsIcESaIcEEEEEvRKT_PSo
FN:976,_ZN7testing8internal14UniversalPrintImEEvRKT_PSo
FNDA:0,_ZN7testing8internal14UniversalPrintImEEvRKT_PSo
FN:976,_ZN7testing8internal14UniversalPrintIiEEvRKT_PSo
FNDA:0,_ZN7testing8internal14UniversalPrintIiEEvRKT_PSo
FN:1016,_ZN7testing13PrintToStringINSt7__cxx1112basic_stringIcSt11char_traitsIcESaIcEEEEES6_RKT_
FNDA:0,_ZN7testing13PrintToStringINSt7__cxx1112basic_stringIcSt11char_traitsIcESaIcEEEEES6_RKT_
FN:1016,_ZN7testing13PrintToStringIiEENSt7__cxx1112basic_stringIcSt11char_traitsIcESaIcEEERKT_
FNDA:0,_ZN7testing13PrintToStringIiEENSt7__cxx1112basic_stringIcSt11char_traitsIcESaIcEEERKT_
FN:1016,_ZN7testing13PrintToStringIPKcEENSt7__cxx1112basic_stringIcSt11char_traitsIcESaIcEEERKT_
FNDA:0,_ZN7testing13PrintToStringIPKcEENSt7__cxx1112basic_stringIcSt11char_traitsIcESaIcEEERKT_
FN:1016,_ZN7testing13PrintToStringIbEENSt7__cxx1112basic_stringIcSt11char_traitsIcESaIcEEERKT_
FNDA:0,_ZN7testing13PrintToStringIbEENSt7__cxx1112basic_stringIcSt11char_traitsIcESaIcEEERKT_
FN:1016,_ZN7testing13PrintToStringImEENSt7__cxx1112basic_stringIcSt11char_traitsIcESaIcEEERKT_
FNDA:0,_ZN7testing13PrintToStringImEENSt7__cxx1112basic_stringIcSt11char_traitsIcESaIcEEERKT_
DA:212,0
DA:215,0
DA:216,0
DA:212,0
DA:215,0
DA:216,0
DA:306,0
DA:312,0
DA:313,0
DA:306,0
DA:312,0
DA:313,0
DA:333,0
DA:334,0
DA:333,0
DA:334,0
DA:333,0
DA:334,0
DA:333,0
DA:334,0
DA:333,0
DA:334,0
DA:387,0
DA:413,0
DA:415,0
DA:413,0
DA:415,0
DA:413,0
DA:415,0
DA:413,0
DA:415,0
DA:413,0
DA:415,0
DA:413,0
DA:415,0
DA:440,0
DA:441,0
DA:442,0
DA:440,0
DA:441,0
DA:442,0
DA:459,0
DA:460,0
DA:461,0
DA:549,0
DA:550,0
DA:551,0
DA:682,0
DA:691,0
DA:692,0
DA:682,0
DA:691,0
DA:692,0
DA:682,0
DA:691,0
DA:692,0
DA:682,0
DA:691,0
DA:692,0
DA:864,0
DA:865,0
DA:866,0
DA:864,0
DA:865,0
DA:866,0
DA:864,0
DA:865,0
DA:866,0
DA:864,0
DA:865,0
DA:866,0
DA:885,0
DA:886,0
DA:887,0
DA:889,0
DA:891,0
DA:976,0
DA:980,0
DA:981,0
DA:976,0
DA:980,0
DA:981,0
DA:976,0
DA:980,0
DA:981,0
DA:976,0
DA:980,0
DA:981,0
DA:1016,0
DA:1017,0
DA:1018,0
DA:1019,0
DA:1020,0
DA:1016,0
DA:1017,0
DA:1018,0
DA:1019,0
DA:1020,0
DA:1016,0
DA:1017,0
DA:1018,0
DA:1019,0
DA:1020,0
DA:1016,0
DA:1017,0
DA:1018,0
DA:1019,0
DA:1020,0
DA:1016,0
DA:1017,0
DA:1018,0
DA:1019,0
DA:1020,0
end_of_record
SF:/usr/include/c++/11/bits/ptr_traits.h
FN:149,_ZNSt14pointer_traitsIPKcE10pointer_toERS0_
FNDA:30,_ZNSt14pointer_traitsIPKcE10pointer_toERS0_
FN:149,_ZNSt14pointer_traitsIPcE10pointer_toERc
FNDA:10,_ZNSt14pointer_traitsIPcE10pointer_toERc
DA:149,30
DA:150,30
DA:149,10
DA:150,10
end_of_record
SF:/usr/include/c++/11/type_traits
FN:3418,_ZSt21is_constant_evaluatedv
FNDA:282,_ZSt21is_constant_evaluatedv
DA:3418,282
DA:3419,282
end_of_record
SF:/usr/include/c++/11/bits/basic_string.h
FN:164,_ZNSt7__cxx1112basic_stringIcSt11char_traitsIcESaIcEE12_Alloc_hiderC2EPcRKS3_
FNDA:6,_ZNSt7__cxx1112basic_stringIcSt11char_traitsIcESaIcEE12_Alloc_hiderC2EPcRKS3_
FN:167,_ZNSt7__cxx1112basic_stringIcSt11char_traitsIcESaIcEE12_Alloc_hiderC2EPcOS3_
FNDA:4,_ZNSt7__cxx1112basic_stringIcSt11char_traitsIcESaIcEE12_Alloc_hiderC2EPcOS3_
FN:186,_ZNSt7__cxx1112basic_stringIcSt11char_traitsIcESaIcEE7_M_dataEPc
FNDA:9,_ZNSt7__cxx1112basic_stringIcSt11char_traitsIcESaIcEE7_M_dataEPc
FN:190,_ZNSt7__cxx1112basic_stringIcSt11char_traitsIcESaIcEE9_M_lengthEm
FNDA:10,_ZNSt7__cxx1112basic_stringIcSt11char_traitsIcESaIcEE9_M_lengthEm
FN:194,_ZNKSt7__cxx1112basic_stringIcSt11char_traitsIcESaIcEE7_M_dataEv
FNDA:79,_ZNKSt7__cxx1112basic_stringIcSt11char_traitsIcESaIcEE7_M_dataEv
FN:198,_ZNSt7__cxx1112basic_stringIcSt11char_traitsIcESaIcEE13_M_local_dataEv
FNDA:10,_ZNSt7__cxx1112basic_stringIcSt11char_traitsIcESaIcEE13_M_local_dataEv
FN:208,_ZNKSt7__cxx1112basic_stringIcSt11char_traitsIcESaIcEE13_M_local_dataEv
FNDA:30,_ZNKSt7__cxx1112basic_stringIcSt11char_traitsIcESaIcEE13_M_local_dataEv
FN:218,_ZNSt7__cxx1112basic_stringIcSt11char_traitsIcESaIcEE11_M_capacityEm
FNDA:9,_ZNSt7__cxx1112basic_stringIcSt11char_traitsIcESaIcEE11_M_capacityEm
FN:222,_ZNSt7__cxx1112basic_stringIcSt11char_traitsIcESaIcEE13_M_set_lengthEm
FNDA:10,_ZNSt7__cxx1112basic_stringIcSt11char_traitsIcESaIcEE13_M_set_lengthEm
FN:229,_ZNKSt7__cxx1112basic_stringIcSt11char_traitsIcESaIcEE11_M_is_localEv
FNDA:30,_ZNKSt7__cxx1112basic_stringIcSt11char_traitsIcESaIcEE11_M_is_localEv
FN:237,_ZNSt7__cxx1112basic_stringIcSt11char_traitsIcESaIcEE10_M_disposeEv
FNDA:30,_ZNSt7__cxx1112basic_stringIcSt11char_traitsIcESaIcEE10_M_disposeEv
FN:244,_ZNSt7__cxx1112basic_stringIcSt11char_traitsIcESaIcEE10_M_destroyEm
FNDA:11,_ZNSt7__cxx1112basic_stringIcSt11char_traitsIcESaIcEE10_M_destroyEm
FN:251,_ZNSt7__cxx1112basic_stringIcSt11char_traitsIcESaIcEE16_M_construct_auxIPcEEvT_S7_St12__false_type
FNDA:4,_ZNSt7__cxx1112basic_stringIcSt11char_traitsIcESaIcEE16_M_construct_auxIPcEEvT_S7_St12__false_type
FN:271,_ZNSt7__cxx1112basic_stringIcSt11char_traitsIcESaIcEE12_M_constructIPcEEvT_S7_
FNDA:4,_ZNSt7__cxx1112basic_stringIcSt11char_traitsIcESaIcEE12_M_constructIPcEEvT_S7_
FN:294,_ZNSt7__cxx1112basic_stringIcSt11char_traitsIcESaIcEE16_M_get_allocatorEv
FNDA:272,_ZNSt7__cxx1112basic_stringIcSt11char_traitsIcESaIcEE16_M_get_allocatorEv
FN:298,_ZNKSt7__cxx1112basic_stringIcSt11char_traitsIcESaIcEE16_M_get_allocatorEv
FNDA:359,_ZNKSt7__cxx1112basic_stringIcSt11char_traitsIcESaIcEE16_M_get_allocatorEv
FN:354,_ZNSt7__cxx1112basic_stringIcSt11char_traitsIcESaIcEE7_S_copyEPcPKcm
FNDA:10,_ZNSt7__cxx1112basic_stringIcSt11char_traitsIcESaIcEE7_S_copyEPcPKcm
FN:400,_ZNSt7__cxx1112basic_stringIcSt11char_traitsIcESaIcEE13_S_copy_charsEPcS5_S5_
FNDA:4,_ZNSt7__cxx1112basic_stringIcSt11char_traitsIcESaIcEE13_S_copy_charsEPcS5_S5_
FN:404,_ZNSt7__cxx1112basic_stringIcSt11char_traitsIcESaIcEE13_S_copy_charsEPcPKcS7_
FNDA:6,_ZNSt7__cxx1112basic_stringIcSt11char_traitsIcESaIcEE13_S_copy_charsEPcPKcS7_
FN:409,_ZNSt7__cxx1112basic_stringIcSt11char_traitsIcESaIcEE10_S_compareEmm
FNDA:10,_ZNSt7__cxx1112basic_stringIcSt11char_traitsIcESaIcEE10_S_compareEmm
FN:456,_ZNSt7__cxx1112basic_stringIcSt11char_traitsIcESaIcEEC2ERKS4_
FNDA:4,_ZNSt7__cxx1112basic_stringIcSt11char_traitsIcESaIcEEC2ERKS4_
FN:533,_ZNSt7__cxx1112basic_stringIcSt11char_traitsIcESaIcEEC2IS3_EEPKcRKS3_
FNDA:6,_ZNSt7__cxx1112basic_stringIcSt11char_traitsIcESaIcEEC2IS3_EEPKcRKS3_
FN:671,_ZNSt7__cxx1112basic_stringIcSt11char_traitsIcESaIcEED2Ev
FNDA:26,_ZNSt7__cxx1112basic_stringIcSt11char_traitsIcESaIcEED2Ev
FN:920,_ZNKSt7__cxx1112basic_stringIcSt11char_traitsIcESaIcEE4sizeEv
FNDA:10,_ZNKSt7__cxx1112basic_stringIcSt11char_traitsIcESaIcEE4sizeEv
FN:926,_ZNKSt7__cxx1112basic_stringIcSt11char_traitsIcESaIcEE6lengthEv
FNDA:4,_ZNKSt7__cxx1112basic_stringIcSt11char_traitsIcESaIcEE6lengthEv
FN:931,_ZNKSt7__cxx1112basic_stringIcSt11char_traitsIcESaIcEE8max_sizeEv
FNDA:355,_ZNKSt7__cxx1112basic_stringIcSt11char_traitsIcESaIcEE8max_sizeEv
FN:2320,_ZNKSt7__cxx1112basic_stringIcSt11char_traitsIcESaIcEE5c_strEv
FNDA:0,_ZNKSt7__cxx1112basic_stringIcSt11char_traitsIcESaIcEE5c_strEv
FN:6248,_ZSteqIcSt11char_traitsIcESaIcEEbRKNSt7__cxx1112basic_stringIT_T0_T1_EEPKS5_
FNDA:2,_ZSteqIcSt11char_traitsIcESaIcEEbRKNSt7__cxx1112basic_stringIT_T0_T1_EEPKS5_
DA:164,6
DA:165,6
DA:167,4
DA:168,4
DA:186,9
DA:187,9
DA:190,10
DA:191,10
DA:194,79
DA:195,79
DA:198,10
DA:201,10
DA:208,30
DA:211,30
DA:218,9
DA:219,9
DA:222,10
DA:224,10
DA:225,10
DA:226,10
DA:229,30
DA:230,30
DA:237,30
DA:239,30
DA:240,11
DA:241,30
DA:244,11
DA:245,11
DA:251,4
DA:255,4
DA:256,4
DA:271,4
DA:274,4
DA:275,4
DA:294,272
DA:295,272
DA:298,359
DA:299,359
DA:354,10
DA:356,10
DA:357,0
DA:359,10
DA:360,10
DA:400,4
DA:401,4
DA:404,6
DA:406,6
DA:409,10
DA:411,10
DA:413,10
DA:414,0
DA:415,10
DA:416,0
DA:418,10
DA:456,4
DA:457,4
DA:458,4
DA:459,4
DA:533,6
DA:534,6
DA:536,6
DA:539,6
DA:540,6
DA:671,26
DA:672,26
DA:920,10
DA:921,10
DA:926,4
DA:927,4
DA:931,355
DA:932,355
DA:2320,0
DA:2321,0
DA:6248,2
DA:6250,2
end_of_record
SF:/usr/include/c++/11/bits/stl_iterator_base_types.h
FN:238,_ZSt19__iterator_categoryIPKcENSt15iterator_traitsIT_E17iterator_categoryERKS3_
FNDA:6,_ZSt19__iterator_categoryIPKcENSt15iterator_traitsIT_E17iterator_categoryERKS3_
FN:238,_ZSt19__iterator_categoryIPcENSt15iterator_traitsIT_E17iterator_categoryERKS2_
FNDA:4,_ZSt19__iterator_categoryIPcENSt15iterator_traitsIT_E17iterator_categoryERKS2_
DA:238,6
DA:239,6
DA:238,4
DA:239,4
end_of_record
SF:/home/pdi-5391/Documentos/data-structures/queue_of_stacks/tests/tests.cpp
FN:18,_ZN32QueueOfStacks_SimpleEnqueue_TestC2Ev
FNDA:1,_ZN32QueueOfStacks_SimpleEnqueue_TestC2Ev
FN:18,_ZN32QueueOfStacks_SimpleEnqueue_TestD0Ev
FNDA:1,_ZN32QueueOfStacks_SimpleEnqueue_TestD0Ev
FN:18,_ZN32QueueOfStacks_SimpleEnqueue_TestD2Ev
FNDA:1,_ZN32QueueOfStacks_SimpleEnqueue_TestD2Ev
FN:18,_ZN32QueueOfStacks_SimpleEnqueue_Test8TestBodyEv
FNDA:1,_ZN32QueueOfStacks_SimpleEnqueue_Test8TestBodyEv
FN:39,_ZN32QueueOfStacks_SimpleDequeue_TestC2Ev
FNDA:1,_ZN32QueueOfStacks_SimpleDequeue_TestC2Ev
FN:39,_ZN32QueueOfStacks_SimpleDequeue_TestD0Ev
FNDA:1,_ZN32QueueOfStacks_SimpleDequeue_TestD0Ev
FN:39,_ZN32QueueOfStacks_SimpleDequeue_TestD2Ev
FNDA:1,_ZN32QueueOfStacks_SimpleDequeue_TestD2Ev
FN:39,_ZN32QueueOfStacks_SimpleDequeue_Test8TestBodyEv
FNDA:1,_ZN32QueueOfStacks_SimpleDequeue_Test8TestBodyEv
FN:62,main
FNDA:2,main
DA:18,1
DA:18,1
DA:18,1
DA:18,1
DA:20,1
DA:23,1
DA:24,1
DA:25,1
DA:26,1
DA:27,1
DA:29,1
DA:31,1
DA:32,1
DA:33,1
DA:39,1
DA:39,1
DA:39,1
DA:39,1
DA:41,1
DA:44,1
DA:45,1
DA:46,1
DA:47,1
DA:49,1
DA:51,1
DA:52,1
DA:53,1
DA:62,2
DA:64,2
DA:65,2
end_of_record
SF:/usr/include/c++/11/bits/stl_iterator_base_funcs.h
FN:98,_ZSt10__distanceIPcENSt15iterator_traitsIT_E15difference_typeES2_S2_St26random_access_iterator_tag
FNDA:4,_ZSt10__distanceIPcENSt15iterator_traitsIT_E15difference_typeES2_S2_St26random_access_iterator_tag
FN:98,_ZSt10__distanceIPKcENSt15iterator_traitsIT_E15difference_typeES3_S3_St26random_access_iterator_tag
FNDA:6,_ZSt10__distanceIPKcENSt15iterator_traitsIT_E15difference_typeES3_S3_St26random_access_iterator_tag
FN:138,_ZSt8distanceIPcENSt15iterator_traitsIT_E15difference_typeES2_S2_
FNDA:4,_ZSt8distanceIPcENSt15iterator_traitsIT_E15difference_typeES2_S2_
FN:138,_ZSt8distanceIPKcENSt15iterator_traitsIT_E15difference_typeES3_S3_
FNDA:6,_ZSt8distanceIPKcENSt15iterator_traitsIT_E15difference_typeES3_S3_
DA:98,4
DA:104,4
DA:98,6
DA:104,6
DA:138,4
DA:141,4
DA:142,8
DA:138,6
DA:141,6
DA:142,12
end_of_record
SF:/usr/include/c++/11/ext/type_traits.h
FN:152,_ZN9__gnu_cxx17__is_null_pointerIcEEbPT_
FNDA:4,_ZN9__gnu_cxx17__is_null_pointerIcEEbPT_
FN:152,_ZN9__gnu_cxx17__is_null_pointerIKcEEbPT_
FNDA:6,_ZN9__gnu_cxx17__is_null_pointerIKcEEbPT_
DA:152,4
DA:153,4
DA:152,6
DA:153,6
end_of_record
SF:/usr/include/c++/11/bits/unique_ptr.h
FN:79,_ZNKSt14default_deleteINSt7__cxx1118basic_stringstreamIcSt11char_traitsIcESaIcEEEEclEPS5_
FNDA:0,_ZNKSt14default_deleteINSt7__cxx1118basic_stringstreamIcSt11char_traitsIcESaIcEEEEclEPS5_
FN:79,_ZNKSt14default_deleteINSt7__cxx1112basic_stringIcSt11char_traitsIcESaIcEEEEclEPS5_
FNDA:0,_ZNKSt14default_deleteINSt7__cxx1112basic_stringIcSt11char_traitsIcESaIcEEEEclEPS5_
FN:79,_ZNKSt14default_deleteIN5dslib5stack5StackIiEEEclEPS3_
FNDA:4,_ZNKSt14default_deleteIN5dslib5stack5StackIiEEEclEPS3_
FN:116,_ZNKSt14default_deleteIA_iEclIiEENSt9enable_ifIXsrSt14is_convertibleIPA_T_PS0_E5valueEvE4typeEPS5_
FNDA:4,_ZNKSt14default_deleteIA_iEclIiEENSt9enable_ifIXsrSt14is_convertibleIPA_T_PS0_E5valueEvE4typeEPS5_
FN:155,_ZNSt15__uniq_ptr_implIiSt14default_deleteIA_iEEC2EPi
FNDA:4,_ZNSt15__uniq_ptr_implIiSt14default_deleteIA_iEEC2EPi
FN:155,_ZNSt15__uniq_ptr_implIN5dslib5stack5StackIiEESt14default_deleteIS3_EEC2EPS3_
FNDA:4,_ZNSt15__uniq_ptr_implIN5dslib5stack5StackIiEESt14default_deleteIS3_EEC2EPS3_
FN:172,_ZNSt15__uniq_ptr_implIN5dslib5stack5StackIiEESt14default_deleteIS3_EE6_M_ptrEv
FNDA:8,_ZNSt15__uniq_ptr_implIN5dslib5stack5StackIiEESt14default_deleteIS3_EE6_M_ptrEv
FN:172,_ZNSt15__uniq_ptr_implINSt7__cxx1118basic_stringstreamIcSt11char_traitsIcESaIcEEESt14default_deleteIS5_EE6_M_ptrEv
FNDA:0,_ZNSt15__uniq_ptr_implINSt7__cxx1118basic_stringstreamIcSt11char_traitsIcESaIcEEESt14default_deleteIS5_EE6_M_ptrEv
FN:172,_ZNSt15__uniq_ptr_implINSt7__cxx1112basic_stringIcSt11char_traitsIcESaIcEEESt14default_deleteIS5_EE6_M_ptrEv
FNDA:6,_ZNSt15__uniq_ptr_implINSt7__cxx1112basic_stringIcSt11char_traitsIcESaIcEEESt14default_deleteIS5_EE6_M_ptrEv
FN:172,_ZNSt15__uniq_ptr_implIiSt14default_deleteIA_iEE6_M_ptrEv
FNDA:8,_ZNSt15__uniq_ptr_implIiSt14default_deleteIA_iEE6_M_ptrEv
FN:173,_ZNKSt15__uniq_ptr_implIN5dslib5stack5StackIiEESt14default_deleteIS3_EE6_M_ptrEv
FNDA:27,_ZNKSt15__uniq_ptr_implIN5dslib5stack5StackIiEESt14default_deleteIS3_EE6_M_ptrEv
FN:173,_ZNKSt15__uniq_ptr_implIiSt14default_deleteIA_iEE6_M_ptrEv
FNDA:14,_ZNKSt15__uniq_ptr_implIiSt14default_deleteIA_iEE6_M_ptrEv
FN:173,_ZNKSt15__uniq_ptr_implINSt7__cxx1112basic_stringIcSt11char_traitsIcESaIcEEESt14default_deleteIS5_EE6_M_ptrEv
FNDA:0,_ZNKSt15__uniq_ptr_implINSt7__cxx1112basic_stringIcSt11char_traitsIcESaIcEEESt14default_deleteIS5_EE6_M_ptrEv
FN:174,_ZNSt15__uniq_ptr_implIN5dslib5stack5StackIiEESt14default_deleteIS3_EE10_M_deleterEv
FNDA:4,_ZNSt15__uniq_ptr_implIN5dslib5stack5StackIiEESt14default_deleteIS3_EE10_M_deleterEv
FN:174,_ZNSt15__uniq_ptr_implIiSt14default_deleteIA_iEE10_M_deleterEv
FNDA:4,_ZNSt15__uniq_ptr_implIiSt14default_deleteIA_iEE10_M_deleterEv
FN:174,_ZNSt15__uniq_ptr_implINSt7__cxx1112basic_stringIcSt11char_traitsIcESaIcEEESt14default_deleteIS5_EE10_M_deleterEv
FNDA:0,_ZNSt15__uniq_ptr_implINSt7__cxx1112basic_stringIcSt11char_traitsIcESaIcEEESt14default_deleteIS5_EE10_M_deleterEv
FN:174,_ZNSt15__uniq_ptr_implINSt7__cxx1118basic_stringstreamIcSt11char_traitsIcESaIcEEESt14default_deleteIS5_EE10_M_deleterEv
FNDA:0,_ZNSt15__uniq_ptr_implINSt7__cxx1118basic_stringstreamIcSt11char_traitsIcESaIcEEESt14default_deleteIS5_EE10_M_deleterEv
FN:281,_ZNSt10unique_ptrIN5dslib5stack5StackIiEESt14default_deleteIS3_EEC2IS5_vEEPS3_
FNDA:4,_ZNSt10unique_ptrIN5dslib5stack5StackIiEESt14default_deleteIS3_EEC2IS5_vEEPS3_
FN:355,_ZNSt10unique_ptrINSt7__cxx1118basic_stringstreamIcSt11char_traitsIcESaIcEEESt14default_deleteIS5_EED2Ev
FNDA:0,_ZNSt10unique_ptrINSt7__cxx1118basic_stringstreamIcSt11char_traitsIcESaIcEEESt14default_deleteIS5_EED2Ev
FN:355,_ZNSt10unique_ptrINSt7__cxx1112basic_stringIcSt11char_traitsIcESaIcEEESt14default_deleteIS5_EED2Ev
FNDA:6,_ZNSt10unique_ptrINSt7__cxx1112basic_stringIcSt11char_traitsIcESaIcEEESt14default_deleteIS5_EED2Ev
FN:355,_ZNSt10unique_ptrIN5dslib5stack5StackIiEESt14default_deleteIS3_EED2Ev
FNDA:4,_ZNSt10unique_ptrIN5dslib5stack5StackIiEESt14default_deleteIS3_EED2Ev
FN:413,_ZNKSt10unique_ptrIN5dslib5stack5StackIiEESt14default_deleteIS3_EEptEv
FNDA:27,_ZNKSt10unique_ptrIN5dslib5stack5StackIiEESt14default_deleteIS3_EEptEv
FN:413,_ZNKSt10unique_ptrINSt7__cxx1112basic_stringIcSt11char_traitsIcESaIcEEESt14default_deleteIS5_EEptEv
FNDA:0,_ZNKSt10unique_ptrINSt7__cxx1112basic_stringIcSt11char_traitsIcESaIcEEESt14default_deleteIS5_EEptEv
FN:421,_ZNKSt10unique_ptrIN5dslib5stack5StackIiEESt14default_deleteIS3_EE3getEv
FNDA:27,_ZNKSt10unique_ptrIN5dslib5stack5StackIiEESt14default_deleteIS3_EE3getEv
FN:421,_ZNKSt10unique_ptrINSt7__cxx1112basic_stringIcSt11char_traitsIcESaIcEEESt14default_deleteIS5_EE3getEv
FNDA:0,_ZNKSt10unique_ptrINSt7__cxx1112basic_stringIcSt11char_traitsIcESaIcEEESt14default_deleteIS5_EE3getEv
FN:426,_ZNSt10unique_ptrIN5dslib5stack5StackIiEESt14default_deleteIS3_EE11get_deleterEv
FNDA:4,_ZNSt10unique_ptrIN5dslib5stack5StackIiEESt14default_deleteIS3_EE11get_deleterEv
FN:426,_ZNSt10unique_ptrINSt7__cxx1112basic_stringIcSt11char_traitsIcESaIcEEESt14default_deleteIS5_EE11get_deleterEv
FNDA:0,_ZNSt10unique_ptrINSt7__cxx1112basic_stringIcSt11char_traitsIcESaIcEEESt14default_deleteIS5_EE11get_deleterEv
FN:426,_ZNSt10unique_ptrINSt7__cxx1118basic_stringstreamIcSt11char_traitsIcESaIcEEESt14default_deleteIS5_EE11get_deleterEv
FNDA:0,_ZNSt10unique_ptrINSt7__cxx1118basic_stringstreamIcSt11char_traitsIcESaIcEEESt14default_deleteIS5_EE11get_deleterEv
FN:547,_ZNSt10unique_ptrIA_iSt14default_deleteIS0_EEC2IPiS2_vbEET_
FNDA:4,_ZNSt10unique_ptrIA_iSt14default_deleteIS0_EEC2IPiS2_vbEET_
FN:608,_ZNSt10unique_ptrIA_iSt14default_deleteIS0_EED2Ev
FNDA:4,_ZNSt10unique_ptrIA_iSt14default_deleteIS0_EED2Ev
FN:657,_ZNKSt10unique_ptrIA_iSt14default_deleteIS0_EEixEm
FNDA:14,_ZNKSt10unique_ptrIA_iSt14default_deleteIS0_EEixEm
FN:665,_ZNKSt10unique_ptrIA_iSt14default_deleteIS0_EE3getEv
FNDA:14,_ZNKSt10unique_ptrIA_iSt14default_deleteIS0_EE3getEv
FN:670,_ZNSt10unique_ptrIA_iSt14default_deleteIS0_EE11get_deleterEv
FNDA:4,_ZNSt10unique_ptrIA_iSt14default_deleteIS0_EE11get_deleterEv
FN:961,_ZSt11make_uniqueIN5dslib5stack5StackIiEEJRKmEENSt9_MakeUniqIT_E15__single_objectEDpOT0_
FNDA:4,_ZSt11make_uniqueIN5dslib5stack5StackIiEEJRKmEENSt9_MakeUniqIT_E15__single_objectEDpOT0_
FN:967,_ZSt11make_uniqueIA_iENSt9_MakeUniqIT_E7__arrayEm
FNDA:4,_ZSt11make_uniqueIA_iENSt9_MakeUniqIT_E7__arrayEm
DA:79,4
DA:85,4
DA:86,4
DA:79,0
DA:85,0
DA:86,0
DA:79,0
DA:85,0
DA:86,0
DA:116,4
DA:120,4
DA:121,4
DA:155,4
DA:155,4
DA:172,8
DA:172,8
DA:172,6
DA:172,0
DA:173,14
DA:173,27
DA:173,0
DA:174,4
DA:174,4
DA:174,0
DA:174,0
DA:281,4
DA:282,4
DA:283,4
DA:355,4
DA:359,4
DA:360,4
DA:361,4
DA:362,4
DA:363,4
DA:355,6
DA:359,6
DA:360,6
DA:361,0
DA:362,6
DA:363,6
DA:355,0
DA:359,0
DA:360,0
DA:361,0
DA:362,0
DA:363,0
DA:413,27
DA:416,27
DA:413,0
DA:416,0
DA:421,27
DA:422,27
DA:421,0
DA:422,0
DA:426,4
DA:427,4
DA:426,0
DA:427,0
DA:426,0
DA:427,0
DA:547,4
DA:548,4
DA:549,4
DA:608,4
DA:610,4
DA:611,4
DA:612,4
DA:613,4
DA:614,4
DA:657,14
DA:659,14
DA:660,14
DA:665,14
DA:666,14
DA:670,4
DA:671,4
DA:961,4
DA:962,4
DA:967,4
DA:968,10
end_of_record
SF:/usr/include/c++/11/bits/stl_algobase.h
FN:230,_ZSt3minImERKT_S2_S2_
FNDA:10,_ZSt3minImERKT_S2_S2_
FN:313,_ZSt12__niter_baseIPcET_S1_
FNDA:0,_ZSt12__niter_baseIPcET_S1_
FN:313,_ZSt12__niter_baseIPKcET_S2_
FNDA:0,_ZSt12__niter_baseIPKcET_S2_
FN:335,_ZSt12__niter_wrapIPcET_RKS1_S1_
FNDA:0,_ZSt12__niter_wrapIPcET_RKS1_S1_
FN:380,_ZNSt11__copy_moveILb0ELb0ESt26random_access_iterator_tagE8__copy_mIPKcPcEET0_T_S7_S6_
FNDA:0,_ZNSt11__copy_moveILb0ELb0ESt26random_access_iterator_tagE8__copy_mIPKcPcEET0_T_S7_S6_
FN:420,_ZNSt11__copy_moveILb0ELb1ESt26random_access_iterator_tagE8__copy_mIcEEPT_PKS3_S6_S4_
FNDA:0,_ZNSt11__copy_moveILb0ELb1ESt26random_access_iterator_tagE8__copy_mIcEEPT_PKS3_S6_S4_
FN:486,_ZSt14__copy_move_a2ILb0EPKcPcET1_T0_S4_S3_
FNDA:0,_ZSt14__copy_move_a2ILb0EPKcPcET1_T0_S4_S3_
FN:521,_ZSt14__copy_move_a1ILb0EPKcPcET1_T0_S4_S3_
FNDA:0,_ZSt14__copy_move_a1ILb0EPKcPcET1_T0_S4_S3_
FN:527,_ZSt13__copy_move_aILb0EPKcPcET1_T0_S4_S3_
FNDA:0,_ZSt13__copy_move_aILb0EPKcPcET1_T0_S4_S3_
FN:611,_ZSt4copyIPKcPcET0_T_S4_S3_
FNDA:0,_ZSt4copyIPKcPcET0_T_S4_S3_
DA:230,10
DA:235,10
DA:236,0
DA:237,10
DA:313,0
DA:315,0
DA:313,0
DA:315,0
DA:335,0
DA:336,0
DA:380,0
DA:383,0
DA:385,0
DA:386,0
DA:387,0
DA:389,0
DA:420,0
DA:429,0
DA:430,0
DA:431,0
DA:432,0
DA:486,0
DA:490,0
DA:492,0
DA:495,0
DA:521,0
DA:522,0
DA:527,0
DA:529,0
DA:532,0
DA:611,0
DA:620,0
end_of_record
SF:/usr/include/gtest/internal/gtest-internal.h
FN:454,_ZN7testing8internal15TestFactoryBaseD0Ev
FNDA:0,_ZN7testing8internal15TestFactoryBaseD0Ev
FN:454,_ZN7testing8internal15TestFactoryBaseD2Ev
FNDA:4,_ZN7testing8internal15TestFactoryBaseD2Ev
FN:461,_ZN7testing8internal15TestFactoryBaseC2Ev
FNDA:4,_ZN7testing8internal15TestFactoryBaseC2Ev
FN:472,_ZN7testing8internal15TestFactoryImplI32QueueOfStacks_SimpleEnqueue_TestE10CreateTestEv
FNDA:1,_ZN7testing8internal15TestFactoryImplI32QueueOfStacks_SimpleEnqueue_TestE10CreateTestEv
FN:472,_ZN7testing8internal15TestFactoryImplI32QueueOfStacks_SimpleDequeue_TestE10CreateTestEv
FNDA:1,_ZN7testing8internal15TestFactoryImplI32QueueOfStacks_SimpleDequeue_TestE10CreateTestEv
FN:493,_ZN7testing8internal12CodeLocationC2ERKNSt7__cxx1112basic_stringIcSt11char_traitsIcESaIcEEEi
FNDA:4,_ZN7testing8internal12CodeLocationC2ERKNSt7__cxx1112basic_stringIcSt11char_traitsIcESaIcEEEi
FN:506,_ZN7testing8internal19GetNotDefaultOrNullEPFvvES2_
FNDA:16,_ZN7testing8internal19GetNotDefaultOrNullEPFvvES2_
FN:521,_ZN7testing8internal16SuiteApiResolverINS_4TestEE19GetSetUpCaseOrSuiteEPKci
FNDA:4,_ZN7testing8internal16SuiteApiResolverINS_4TestEE19GetSetUpCaseOrSuiteEPKci
FN:542,_ZN7testing8internal16SuiteApiResolverINS_4TestEE22GetTearDownCaseOrSuiteEPKci
FNDA:4,_ZN7testing8internal16SuiteApiResolverINS_4TestEE22GetTearDownCaseOrSuiteEPKci
DA:454,0
DA:454,4
DA:461,4
DA:472,1
DA:472,1
DA:493,4
DA:494,4
DA:506,16
DA:508,16
DA:521,4
DA:525,4
DA:527,4
DA:529,4
DA:532,0
DA:534,4
DA:542,4
DA:546,4
DA:548,4
DA:550,4
DA:553,0
DA:555,4
end_of_record
